target datalayout = "e-m:e-p270:32:32-p271:32:32-p272:64:64-i64:64-i128:128-f80:128-n8:16:32:64-S128"
target triple = "x86_64-pc-linux-gnu"

%struct.ObjectAddress = type { i32, i32, i32 }
%struct.EventTriggerQueryState = type { ptr, %struct.slist_head, i8, i32, i32, i8, ptr, ptr, ptr }
%struct.slist_head = type { %struct.slist_node }
%struct.slist_node = type { ptr }
%struct.CollectedCommand = type { i32, i8, ptr, %union.anon, ptr }
%union.anon = type { %struct.anon.2 }
%struct.anon.2 = type { %struct.ObjectAddress, ptr, ptr }
%struct.anon.0 = type { i32, i32, ptr }

@currentEventTriggerState = internal global ptr null, align 8
@CurrentMemoryContext = external global ptr, align 8

; Function Attrs: inlinehint nounwind uwtable
define internal ptr @MemoryContextSwitchTo(ptr noundef %0) #6 {
  %2 = alloca ptr, align 8
  %3 = alloca ptr, align 8
  store ptr %0, ptr %2, align 8
  call void @llvm.lifetime.start.p0(i64 8, ptr %3) #10
  %4 = load ptr, ptr @CurrentMemoryContext, align 8
  store ptr %4, ptr %3, align 8
  %5 = load ptr, ptr %2, align 8
  store ptr %5, ptr @CurrentMemoryContext, align 8
  %6 = load ptr, ptr %3, align 8
  call void @llvm.lifetime.end.p0(i64 8, ptr %3) #10
  ret ptr %6
}

; Function Attrs: nounwind uwtable
define dso_local void @EventTriggerAlterTableEnd() #0 {
  %1 = alloca ptr, align 8
  %2 = alloca i32, align 4
  %3 = alloca ptr, align 8
  call void @llvm.lifetime.start.p0(i64 8, ptr %1) #10
  %4 = load ptr, ptr @currentEventTriggerState, align 8
  %5 = icmp ne ptr %4, null
  br i1 %5, label %6, label %11

6:                                                ; preds = %0
  %7 = load ptr, ptr @currentEventTriggerState, align 8
  %8 = getelementptr inbounds nuw %struct.EventTriggerQueryState, ptr %7, i32 0, i32 5
  %9 = load i8, ptr %8, align 4, !range !8, !noundef !9
  %10 = trunc i8 %9 to i1
  br i1 %10, label %11, label %12

11:                                               ; preds = %6, %0
  store i32 1, ptr %2, align 4
  br label %49

12:                                               ; preds = %6
  %13 = load ptr, ptr @currentEventTriggerState, align 8
  %14 = getelementptr inbounds nuw %struct.EventTriggerQueryState, ptr %13, i32 0, i32 6
  %15 = load ptr, ptr %14, align 8
  %16 = getelementptr inbounds nuw %struct.CollectedCommand, ptr %15, i32 0, i32 4
  %17 = load ptr, ptr %16, align 8
  store ptr %17, ptr %1, align 8
  %18 = load ptr, ptr @currentEventTriggerState, align 8
  %19 = getelementptr inbounds nuw %struct.EventTriggerQueryState, ptr %18, i32 0, i32 6
  %20 = load ptr, ptr %19, align 8
  %21 = getelementptr inbounds nuw %struct.CollectedCommand, ptr %20, i32 0, i32 3
  %22 = getelementptr inbounds nuw %struct.anon.0, ptr %21, i32 0, i32 2
  %23 = load ptr, ptr %22, align 8
  %24 = icmp ne ptr %23, null
  br i1 %24, label %25, label %41

25:                                               ; preds = %12
  call void @llvm.lifetime.start.p0(i64 8, ptr %3) #10
  %26 = load ptr, ptr @currentEventTriggerState, align 8
  %27 = getelementptr inbounds nuw %struct.EventTriggerQueryState, ptr %26, i32 0, i32 0
  %28 = load ptr, ptr %27, align 8
  %29 = call ptr @MemoryContextSwitchTo(ptr noundef %28)
  store ptr %29, ptr %3, align 8
  %30 = load ptr, ptr @currentEventTriggerState, align 8
  %31 = getelementptr inbounds nuw %struct.EventTriggerQueryState, ptr %30, i32 0, i32 7
  %32 = load ptr, ptr %31, align 8
  %33 = load ptr, ptr @currentEventTriggerState, align 8
  %34 = getelementptr inbounds nuw %struct.EventTriggerQueryState, ptr %33, i32 0, i32 6
  %35 = load ptr, ptr %34, align 8
  %36 = call ptr @lappend(ptr noundef %32, ptr noundef %35)
  %37 = load ptr, ptr @currentEventTriggerState, align 8
  %38 = getelementptr inbounds nuw %struct.EventTriggerQueryState, ptr %37, i32 0, i32 7
  store ptr %36, ptr %38, align 8
  %39 = load ptr, ptr %3, align 8
  %40 = call ptr @MemoryContextSwitchTo(ptr noundef %39)
  call void @llvm.lifetime.end.p0(i64 8, ptr %3) #10
  br label %45

41:                                               ; preds = %12
  %42 = load ptr, ptr @currentEventTriggerState, align 8
  %43 = getelementptr inbounds nuw %struct.EventTriggerQueryState, ptr %42, i32 0, i32 6
  %44 = load ptr, ptr %43, align 8
  call void @pfree(ptr noundef %44)
  br label %45

45:                                               ; preds = %41, %25
  %46 = load ptr, ptr %1, align 8
  %47 = load ptr, ptr @currentEventTriggerState, align 8
  %48 = getelementptr inbounds nuw %struct.EventTriggerQueryState, ptr %47, i32 0, i32 6
  store ptr %46, ptr %48, align 8
  store i32 0, ptr %2, align 4
  br label %49

49:                                               ; preds = %45, %11
  call void @llvm.lifetime.end.p0(i64 8, ptr %1) #10
  %50 = load i32, ptr %2, align 4
  switch i32 %50, label %52 [
    i32 0, label %51
    i32 1, label %51
  ]

51:                                               ; preds = %49, %49
  ret void

52:                                               ; preds = %49
  unreachable
}