; Function Attrs: nounwind uwtable
define dso_local void @EventTriggerAlterTableEnd() local_unnamed_addr #0 {
  %1 = load ptr, ptr @currentEventTriggerState, align 8
  %.not = icmp eq ptr %1, null
  br i1 %.not, label %25, label %2

2:                                                ; preds = %0
  %3 = getelementptr inbounds nuw i8, ptr %1, i64 28
  %4 = load i8, ptr %3, align 4, !range !9, !noundef !10
  %5 = trunc nuw i8 %4 to i1
  br i1 %5, label %25, label %6

6:                                                ; preds = %2
  %7 = getelementptr inbounds nuw i8, ptr %1, i64 32
  %8 = load ptr, ptr %7, align 8
  %9 = getelementptr inbounds nuw i8, ptr %8, i64 48
  %10 = load ptr, ptr %9, align 8
  %11 = getelementptr inbounds nuw i8, ptr %8, i64 24
  %12 = load ptr, ptr %11, align 8
  %.not2 = icmp eq ptr %12, null
  br i1 %.not2, label %21, label %13

13:                                               ; preds = %6
  %14 = load ptr, ptr %1, align 8
  %15 = load ptr, ptr @CurrentMemoryContext, align 8
  store ptr %14, ptr @CurrentMemoryContext, align 8
  %16 = getelementptr inbounds nuw i8, ptr %1, i64 40
  %17 = load ptr, ptr %16, align 8
  %18 = tail call ptr @lappend(ptr noundef %17, ptr noundef nonnull %8) #16
  %19 = load ptr, ptr @currentEventTriggerState, align 8
  %20 = getelementptr inbounds nuw i8, ptr %19, i64 40
  store ptr %18, ptr %20, align 8
  store ptr %15, ptr @CurrentMemoryContext, align 8
  br label %22

21:                                               ; preds = %6
  tail call void @pfree(ptr noundef nonnull %8) #16
  %.pre = load ptr, ptr @currentEventTriggerState, align 8
  br label %22

22:                                               ; preds = %21, %13
  %23 = phi ptr [ %.pre, %21 ], [ %19, %13 ]
  %24 = getelementptr inbounds nuw i8, ptr %23, i64 32
  store ptr %10, ptr %24, align 8
  br label %25

25:                                               ; preds = %0, %2, %22
  ret void
}